; Function Attrs: nounwind sspstrong uwtable
define internal i64 @mload_findzone(i64 noundef %0) #1 {
  %2 = alloca i64, align 8
  %3 = inttoptr i64 %0 to ptr
  %4 = load i64, ptr %3, align 8, !tbaa !11
  %5 = getelementptr i8, ptr %3, i64 8
  %6 = load i64, ptr %5, align 8, !tbaa !11
  call void @llvm.lifetime.start.p0(i64 8, ptr nonnull %2)
  store i64 %6, ptr %2, align 8, !tbaa !11
  %7 = icmp eq i64 %4, 0
  %8 = and i64 %4, 7
  %9 = icmp ne i64 %8, 0
  %10 = or i1 %7, %9
  br i1 %10, label %14, label %11

11:                                               ; preds = %1
  %12 = inttoptr i64 %4 to ptr
  %13 = getelementptr inbounds nuw i8, ptr %12, i64 8
  br label %find_timezone.exit

14:                                               ; preds = %1
  switch i64 %4, label %17 [
    i64 0, label %find_timezone.exit
    i64 4, label %15
    i64 20, label %16
  ]

15:                                               ; preds = %14
  br label %find_timezone.exit

16:                                               ; preds = %14
  br label %find_timezone.exit

17:                                               ; preds = %14
  %18 = and i64 %4, 1
  %.not.i.i = icmp eq i64 %18, 0
  br i1 %.not.i.i, label %19, label %find_timezone.exit

19:                                               ; preds = %17
  %20 = and i64 %4, 254
  %21 = icmp eq i64 %20, 12
  %spec.select.i.i = select i1 %21, ptr @rb_cSymbol, ptr @rb_cFloat
  br label %find_timezone.exit

find_timezone.exit:                               ; preds = %11, %14, %15, %16, %17, %19
  %.0.in.i.i = phi ptr [ @rb_cNilClass, %15 ], [ @rb_cTrueClass, %16 ], [ %13, %11 ], [ @rb_cFalseClass, %14 ], [ @rb_cInteger, %17 ], [ %spec.select.i.i, %19 ]
  %.0.i.i = load i64, ptr %.0.in.i.i, align 8, !tbaa !11
  %22 = load i64, ptr @id_find_timezone, align 8, !tbaa !11
  %23 = call i64 @rb_check_funcall_default(i64 noundef %.0.i.i, i64 noundef %22, i32 noundef 1, ptr noundef nonnull %2, i64 noundef 4) #21
  call void @llvm.lifetime.end.p0(i64 8, ptr nonnull %2)
  ret i64 %23
}